; Function Attrs: nounwind uwtable
define dso_local ptr @decl_safe_name(ptr noundef readonly %0) local_unnamed_addr #0 {
  %.not = icmp eq ptr %0, null
  br i1 %.not, label %9, label %2

2:                                                ; preds = %1
  %3 = load ptr, ptr %0, align 8
  %.not7 = icmp eq ptr %3, null
  br i1 %.not7, label %4, label %9

4:                                                ; preds = %2
  %5 = tail call ptr @decl_to_a_name(ptr noundef nonnull %0)
  %6 = getelementptr inbounds i8, ptr %5, i64 1
  %7 = load i8, ptr %6, align 1
  %8 = icmp eq i8 %7, 110
  %.0.v.i = select i1 %8, i64 3, i64 2
  %.0.i = getelementptr inbounds i8, ptr %5, i64 %.0.v.i
  br label %9

9:                                                ; preds = %2, %1, %4
  %.0 = phi ptr [ %.0.i, %4 ], [ @.str.4, %1 ], [ %3, %2 ]
  ret ptr %.0
}